target datalayout = "e-m:e-p270:32:32-p271:32:32-p272:64:64-i64:64-i128:128-f80:128-n8:16:32:64-S128"
target triple = "x86_64-pc-linux-gnu"

%struct.wl_list = type { ptr, ptr }
%struct.SDL_WaylandPenTool = type { i32, %struct.SDL_PenInfo, ptr, ptr, float, float, i8, [7 x float], i32, i32, [3 x i32], %struct.wl_list }
%struct.SDL_PenInfo = type { i32, float, i32, i32, i32 }

@Wayland_EventTimestampMSToNS.timestamp_offset = internal global i64 0, align 8
@Wayland_EventTimestampMSToNS.last = internal global i32 0, align 4
@Wayland_AdjustEventTimestampBase.timestamp_offset = internal global i64 0, align 8

; Function Attrs: nounwind uwtable
define internal i64 @Wayland_AdjustEventTimestampBase(i64 noundef %0) #0 {
  %2 = alloca i64, align 8
  %3 = alloca i64, align 8
  store i64 %0, ptr %2, align 8
  call void @llvm.lifetime.start.p0(i64 8, ptr %3) #10
  %4 = call i64 @SDL_GetTicksNS_REAL()
  store i64 %4, ptr %3, align 8
  %5 = load i64, ptr @Wayland_AdjustEventTimestampBase.timestamp_offset, align 8
  %6 = icmp ne i64 %5, 0
  br i1 %6, label %11, label %7

7:                                                ; preds = %1
  %8 = load i64, ptr %3, align 8
  %9 = load i64, ptr %2, align 8
  %10 = sub i64 %8, %9
  store i64 %10, ptr @Wayland_AdjustEventTimestampBase.timestamp_offset, align 8
  br label %11

11:                                               ; preds = %7, %1
  %12 = load i64, ptr @Wayland_AdjustEventTimestampBase.timestamp_offset, align 8
  %13 = load i64, ptr %2, align 8
  %14 = add i64 %13, %12
  store i64 %14, ptr %2, align 8
  %15 = load i64, ptr %2, align 8
  %16 = load i64, ptr %3, align 8
  %17 = icmp ugt i64 %15, %16
  br i1 %17, label %18, label %25

18:                                               ; preds = %11
  %19 = load i64, ptr %2, align 8
  %20 = load i64, ptr %3, align 8
  %21 = sub i64 %19, %20
  %22 = load i64, ptr @Wayland_AdjustEventTimestampBase.timestamp_offset, align 8
  %23 = sub i64 %22, %21
  store i64 %23, ptr @Wayland_AdjustEventTimestampBase.timestamp_offset, align 8
  %24 = load i64, ptr %3, align 8
  store i64 %24, ptr %2, align 8
  br label %25

25:                                               ; preds = %18, %11
  %26 = load i64, ptr %2, align 8
  call void @llvm.lifetime.end.p0(i64 8, ptr %3) #10
  ret i64 %26
}

; Function Attrs: nounwind uwtable
define internal i64 @Wayland_EventTimestampMSToNS(i32 noundef %0) #0 {
  %2 = alloca i32, align 4
  store i32 %0, ptr %2, align 4
  %3 = load i32, ptr %2, align 4
  %4 = load i32, ptr @Wayland_EventTimestampMSToNS.last, align 4
  %5 = icmp ult i32 %3, %4
  br i1 %5, label %6, label %9

6:                                                ; preds = %1
  %7 = load i64, ptr @Wayland_EventTimestampMSToNS.timestamp_offset, align 8
  %8 = add i64 %7, 4294967296000000
  store i64 %8, ptr @Wayland_EventTimestampMSToNS.timestamp_offset, align 8
  br label %9

9:                                                ; preds = %6, %1
  %10 = load i32, ptr %2, align 4
  store i32 %10, ptr @Wayland_EventTimestampMSToNS.last, align 4
  %11 = load i32, ptr %2, align 4
  %12 = zext i32 %11 to i64
  %13 = mul i64 %12, 1000000
  %14 = load i64, ptr @Wayland_EventTimestampMSToNS.timestamp_offset, align 8
  %15 = add i64 %13, %14
  ret i64 %15
}

; Function Attrs: nounwind uwtable
define internal void @tablet_tool_handle_frame(ptr noundef %0, ptr noundef %1, i32 noundef %2) #0 {
  %4 = alloca ptr, align 8
  %5 = alloca ptr, align 8
  %6 = alloca i32, align 4
  %7 = alloca ptr, align 8
  %8 = alloca i32, align 4
  %9 = alloca i64, align 8
  %10 = alloca i32, align 4
  %11 = alloca ptr, align 8
  %12 = alloca i32, align 4
  %13 = alloca i32, align 4
  %14 = alloca i32, align 4
  store ptr %0, ptr %4, align 8
  store ptr %1, ptr %5, align 8
  store i32 %2, ptr %6, align 4
  call void @llvm.lifetime.start.p0(i64 8, ptr %7) #10
  %15 = load ptr, ptr %4, align 8
  store ptr %15, ptr %7, align 8
  %16 = load ptr, ptr %7, align 8
  %17 = getelementptr inbounds nuw %struct.SDL_WaylandPenTool, ptr %16, i32 0, i32 0
  %18 = load i32, ptr %17, align 8
  %19 = icmp ne i32 %18, 0
  br i1 %19, label %21, label %20

20:                                               ; preds = %3
  store i32 1, ptr %8, align 4
  br label %169

21:                                               ; preds = %3
  call void @llvm.lifetime.start.p0(i64 8, ptr %9) #10
  %22 = load i32, ptr %6, align 4
  %23 = call i64 @Wayland_EventTimestampMSToNS(i32 noundef %22)
  %24 = call i64 @Wayland_AdjustEventTimestampBase(i64 noundef %23)
  store i64 %24, ptr %9, align 8
  call void @llvm.lifetime.start.p0(i64 4, ptr %10) #10
  %25 = load ptr, ptr %7, align 8
  %26 = getelementptr inbounds nuw %struct.SDL_WaylandPenTool, ptr %25, i32 0, i32 0
  %27 = load i32, ptr %26, align 8
  store i32 %27, ptr %10, align 4
  call void @llvm.lifetime.start.p0(i64 8, ptr %11) #10
  %28 = load ptr, ptr %7, align 8
  %29 = getelementptr inbounds nuw %struct.SDL_WaylandPenTool, ptr %28, i32 0, i32 2
  %30 = load ptr, ptr %29, align 8
  store ptr %30, ptr %11, align 8
  %31 = load ptr, ptr %7, align 8
  %32 = getelementptr inbounds nuw %struct.SDL_WaylandPenTool, ptr %31, i32 0, i32 6
  %33 = load i8, ptr %32, align 8, !range !7, !noundef !8
  %34 = trunc i8 %33 to i1
  br i1 %34, label %35, label %72

35:                                               ; preds = %21
  %36 = load ptr, ptr %7, align 8
  %37 = getelementptr inbounds nuw %struct.SDL_WaylandPenTool, ptr %36, i32 0, i32 9
  %38 = load i32, ptr %37, align 4
  %39 = icmp ne i32 %38, -1
  br i1 %39, label %40, label %72

40:                                               ; preds = %35
  %41 = load ptr, ptr %7, align 8
  %42 = getelementptr inbounds nuw %struct.SDL_WaylandPenTool, ptr %41, i32 0, i32 9
  %43 = load i32, ptr %42, align 4
  %44 = icmp ne i32 %43, 0
  br i1 %44, label %45, label %58

45:                                               ; preds = %40
  %46 = load i64, ptr %9, align 8
  %47 = load i32, ptr %10, align 4
  %48 = load ptr, ptr %11, align 8
  %49 = load ptr, ptr %7, align 8
  %50 = getelementptr inbounds nuw %struct.SDL_WaylandPenTool, ptr %49, i32 0, i32 4
  %51 = load float, ptr %50, align 8
  %52 = load ptr, ptr %7, align 8
  %53 = getelementptr inbounds nuw %struct.SDL_WaylandPenTool, ptr %52, i32 0, i32 5
  %54 = load float, ptr %53, align 4
  call void @SDL_SendPenMotion(i64 noundef %46, i32 noundef %47, ptr noundef %48, float noundef %51, float noundef %54)
  %55 = load i64, ptr %9, align 8
  %56 = load i32, ptr %10, align 4
  %57 = load ptr, ptr %11, align 8
  call void @SDL_SendPenTouch(i64 noundef %55, i32 noundef %56, ptr noundef %57, i1 noundef zeroext false, i1 noundef zeroext true)
  br label %71

58:                                               ; preds = %40
  %59 = load i64, ptr %9, align 8
  %60 = load i32, ptr %10, align 4
  %61 = load ptr, ptr %11, align 8
  call void @SDL_SendPenTouch(i64 noundef %59, i32 noundef %60, ptr noundef %61, i1 noundef zeroext false, i1 noundef zeroext false)
  %62 = load i64, ptr %9, align 8
  %63 = load i32, ptr %10, align 4
  %64 = load ptr, ptr %11, align 8
  %65 = load ptr, ptr %7, align 8
  %66 = getelementptr inbounds nuw %struct.SDL_WaylandPenTool, ptr %65, i32 0, i32 4
  %67 = load float, ptr %66, align 8
  %68 = load ptr, ptr %7, align 8
  %69 = getelementptr inbounds nuw %struct.SDL_WaylandPenTool, ptr %68, i32 0, i32 5
  %70 = load float, ptr %69, align 4
  call void @SDL_SendPenMotion(i64 noundef %62, i32 noundef %63, ptr noundef %64, float noundef %67, float noundef %70)
  br label %71

71:                                               ; preds = %58, %45
  br label %101

72:                                               ; preds = %35, %21
  %73 = load ptr, ptr %7, align 8
  %74 = getelementptr inbounds nuw %struct.SDL_WaylandPenTool, ptr %73, i32 0, i32 9
  %75 = load i32, ptr %74, align 4
  %76 = icmp ne i32 %75, -1
  br i1 %76, label %77, label %85

77:                                               ; preds = %72
  %78 = load i64, ptr %9, align 8
  %79 = load i32, ptr %10, align 4
  %80 = load ptr, ptr %11, align 8
  %81 = load ptr, ptr %7, align 8
  %82 = getelementptr inbounds nuw %struct.SDL_WaylandPenTool, ptr %81, i32 0, i32 9
  %83 = load i32, ptr %82, align 4
  %84 = icmp ne i32 %83, 0
  call void @SDL_SendPenTouch(i64 noundef %78, i32 noundef %79, ptr noundef %80, i1 noundef zeroext false, i1 noundef zeroext %84)
  br label %85

85:                                               ; preds = %77, %72
  %86 = load ptr, ptr %7, align 8
  %87 = getelementptr inbounds nuw %struct.SDL_WaylandPenTool, ptr %86, i32 0, i32 6
  %88 = load i8, ptr %87, align 8, !range !7, !noundef !8
  %89 = trunc i8 %88 to i1
  br i1 %89, label %90, label %100

90:                                               ; preds = %85
  %91 = load i64, ptr %9, align 8
  %92 = load i32, ptr %10, align 4
  %93 = load ptr, ptr %11, align 8
  %94 = load ptr, ptr %7, align 8
  %95 = getelementptr inbounds nuw %struct.SDL_WaylandPenTool, ptr %94, i32 0, i32 4
  %96 = load float, ptr %95, align 8
  %97 = load ptr, ptr %7, align 8
  %98 = getelementptr inbounds nuw %struct.SDL_WaylandPenTool, ptr %97, i32 0, i32 5
  %99 = load float, ptr %98, align 4
  call void @SDL_SendPenMotion(i64 noundef %91, i32 noundef %92, ptr noundef %93, float noundef %96, float noundef %99)
  br label %100

100:                                              ; preds = %90, %85
  br label %101

101:                                              ; preds = %100, %71
  call void @llvm.lifetime.start.p0(i64 4, ptr %12) #10
  store i32 0, ptr %12, align 4
  br label %102

102:                                              ; preds = %126, %101
  %103 = load i32, ptr %12, align 4
  %104 = icmp ult i32 %103, 7
  br i1 %104, label %106, label %105

105:                                              ; preds = %102
  store i32 2, ptr %8, align 4
  call void @llvm.lifetime.end.p0(i64 4, ptr %12) #10
  br label %129

106:                                              ; preds = %102
  %107 = load ptr, ptr %7, align 8
  %108 = getelementptr inbounds nuw %struct.SDL_WaylandPenTool, ptr %107, i32 0, i32 8
  %109 = load i32, ptr %108, align 8
  %110 = load i32, ptr %12, align 4
  %111 = shl i32 1, %110
  %112 = and i32 %109, %111
  %113 = icmp ne i32 %112, 0
  br i1 %113, label %114, label %125

114:                                              ; preds = %106
  %115 = load i64, ptr %9, align 8
  %116 = load i32, ptr %10, align 4
  %117 = load ptr, ptr %11, align 8
  %118 = load i32, ptr %12, align 4
  %119 = load ptr, ptr %7, align 8
  %120 = getelementptr inbounds nuw %struct.SDL_WaylandPenTool, ptr %119, i32 0, i32 7
  %121 = load i32, ptr %12, align 4
  %122 = zext i32 %121 to i64
  %123 = getelementptr inbounds nuw [7 x float], ptr %120, i64 0, i64 %122
  %124 = load float, ptr %123, align 4
  call void @SDL_SendPenAxis(i64 noundef %115, i32 noundef %116, ptr noundef %117, i32 noundef %118, float noundef %124)
  br label %125

125:                                              ; preds = %114, %106
  br label %126

126:                                              ; preds = %125
  %127 = load i32, ptr %12, align 4
  %128 = add i32 %127, 1
  store i32 %128, ptr %12, align 4
  br label %102, !llvm.loop !28

129:                                              ; preds = %105
  call void @llvm.lifetime.start.p0(i64 4, ptr %13) #10
  store i32 0, ptr %13, align 4
  br label %130

130:                                              ; preds = %159, %129
  %131 = load i32, ptr %13, align 4
  %132 = sext i32 %131 to i64
  %133 = icmp ult i64 %132, 3
  br i1 %133, label %135, label %134

134:                                              ; preds = %130
  store i32 5, ptr %8, align 4
  call void @llvm.lifetime.end.p0(i64 4, ptr %13) #10
  br label %162

135:                                              ; preds = %130
  call void @llvm.lifetime.start.p0(i64 4, ptr %14) #10
  %136 = load ptr, ptr %7, align 8
  %137 = getelementptr inbounds nuw %struct.SDL_WaylandPenTool, ptr %136, i32 0, i32 10
  %138 = load i32, ptr %13, align 4
  %139 = sext i32 %138 to i64
  %140 = getelementptr inbounds [3 x i32], ptr %137, i64 0, i64 %139
  %141 = load i32, ptr %140, align 4
  store i32 %141, ptr %14, align 4
  %142 = load i32, ptr %14, align 4
  %143 = icmp ne i32 %142, -1
  br i1 %143, label %144, label %158

144:                                              ; preds = %135
  %145 = load i64, ptr %9, align 8
  %146 = load i32, ptr %10, align 4
  %147 = load ptr, ptr %11, align 8
  %148 = load i32, ptr %13, align 4
  %149 = add nsw i32 %148, 1
  %150 = trunc i32 %149 to i8
  %151 = load i32, ptr %14, align 4
  %152 = icmp ne i32 %151, 0
  call void @SDL_SendPenButton(i64 noundef %145, i32 noundef %146, ptr noundef %147, i8 noundef zeroext %150, i1 noundef zeroext %152)
  %153 = load ptr, ptr %7, align 8
  %154 = getelementptr inbounds nuw %struct.SDL_WaylandPenTool, ptr %153, i32 0, i32 10
  %155 = load i32, ptr %13, align 4
  %156 = sext i32 %155 to i64
  %157 = getelementptr inbounds [3 x i32], ptr %154, i64 0, i64 %156
  store i32 -1, ptr %157, align 4
  br label %158

158:                                              ; preds = %144, %135
  call void @llvm.lifetime.end.p0(i64 4, ptr %14) #10
  br label %159

159:                                              ; preds = %158
  %160 = load i32, ptr %13, align 4
  %161 = add nsw i32 %160, 1
  store i32 %161, ptr %13, align 4
  br label %130, !llvm.loop !29

162:                                              ; preds = %134
  %163 = load ptr, ptr %7, align 8
  %164 = getelementptr inbounds nuw %struct.SDL_WaylandPenTool, ptr %163, i32 0, i32 9
  store i32 -1, ptr %164, align 4
  %165 = load ptr, ptr %7, align 8
  %166 = getelementptr inbounds nuw %struct.SDL_WaylandPenTool, ptr %165, i32 0, i32 6
  store i8 0, ptr %166, align 8
  %167 = load ptr, ptr %7, align 8
  %168 = getelementptr inbounds nuw %struct.SDL_WaylandPenTool, ptr %167, i32 0, i32 8
  store i32 0, ptr %168, align 8
  call void @llvm.lifetime.end.p0(i64 8, ptr %11) #10
  call void @llvm.lifetime.end.p0(i64 4, ptr %10) #10
  call void @llvm.lifetime.end.p0(i64 8, ptr %9) #10
  store i32 0, ptr %8, align 4
  br label %169

169:                                              ; preds = %162, %20
  call void @llvm.lifetime.end.p0(i64 8, ptr %7) #10
  %170 = load i32, ptr %8, align 4
  switch i32 %170, label %172 [
    i32 0, label %171
    i32 1, label %171
  ]

171:                                              ; preds = %169, %169
  ret void

172:                                              ; preds = %169
  unreachable
}