; Function Attrs: nounwind uwtable
define internal void @tablet_tool_handle_frame(ptr noundef captures(none) %0, ptr readnone captures(none) %1, i32 noundef %2) #0 {
  %4 = load i32, ptr %0, align 8
  %.not = icmp eq i32 %4, 0
  br i1 %.not, label %70, label %5

5:                                                ; preds = %3
  %6 = load i32, ptr @Wayland_EventTimestampMSToNS.last, align 4
  %7 = icmp ult i32 %2, %6
  %.pre.i = load i64, ptr @Wayland_EventTimestampMSToNS.timestamp_offset, align 8
  br i1 %7, label %8, label %Wayland_EventTimestampMSToNS.exit

8:                                                ; preds = %5
  %9 = add i64 %.pre.i, 4294967296000000
  store i64 %9, ptr @Wayland_EventTimestampMSToNS.timestamp_offset, align 8
  br label %Wayland_EventTimestampMSToNS.exit

Wayland_EventTimestampMSToNS.exit:                ; preds = %5, %8
  %10 = phi i64 [ %9, %8 ], [ %.pre.i, %5 ]
  store i32 %2, ptr @Wayland_EventTimestampMSToNS.last, align 4
  %11 = zext i32 %2 to i64
  %12 = mul nuw nsw i64 %11, 1000000
  %13 = add i64 %10, %12
  %14 = tail call i64 @SDL_GetTicksNS_REAL() #12
  %15 = load i64, ptr @Wayland_AdjustEventTimestampBase.timestamp_offset, align 8
  %.not.not.i = icmp eq i64 %15, 0
  %16 = sub i64 %14, %13
  %17 = select i1 %.not.not.i, i64 %16, i64 %15
  %18 = add i64 %17, %13
  %.not.i = icmp ugt i64 %18, %14
  %19 = or i1 %.not.not.i, %.not.i
  br i1 %19, label %20, label %Wayland_AdjustEventTimestampBase.exit

20:                                               ; preds = %Wayland_EventTimestampMSToNS.exit
  %simplifycfg.merge.i = select i1 %.not.i, i64 %16, i64 %17
  store i64 %simplifycfg.merge.i, ptr @Wayland_AdjustEventTimestampBase.timestamp_offset, align 8
  br label %Wayland_AdjustEventTimestampBase.exit

Wayland_AdjustEventTimestampBase.exit:            ; preds = %Wayland_EventTimestampMSToNS.exit, %20
  %.0.i = tail call i64 @llvm.umin.i64(i64 %18, i64 %14)
  %21 = load i32, ptr %0, align 8
  %22 = getelementptr inbounds nuw i8, ptr %0, i64 24
  %23 = load ptr, ptr %22, align 8
  %24 = getelementptr inbounds nuw i8, ptr %0, i64 48
  %25 = load i8, ptr %24, align 8, !range !6, !noundef !7
  %26 = trunc nuw i8 %25 to i1
  %27 = getelementptr inbounds nuw i8, ptr %0, i64 84
  %28 = load i32, ptr %27, align 4
  br i1 %26, label %29, label %40

29:                                               ; preds = %Wayland_AdjustEventTimestampBase.exit
  switch i32 %28, label %30 [
    i32 -1, label %.thread78
    i32 0, label %35
  ]

30:                                               ; preds = %29
  %31 = getelementptr inbounds nuw i8, ptr %0, i64 40
  %32 = load float, ptr %31, align 8
  %33 = getelementptr inbounds nuw i8, ptr %0, i64 44
  %34 = load float, ptr %33, align 4
  tail call void @SDL_SendPenMotion(i64 noundef %.0.i, i32 noundef %21, ptr noundef %23, float noundef %32, float noundef %34) #12
  tail call void @SDL_SendPenTouch(i64 noundef %.0.i, i32 noundef %21, ptr noundef %23, i1 noundef zeroext false, i1 noundef zeroext true) #12
  br label %.thread79

35:                                               ; preds = %29
  tail call void @SDL_SendPenTouch(i64 noundef %.0.i, i32 noundef %21, ptr noundef %23, i1 noundef zeroext false, i1 noundef zeroext false) #12
  %36 = getelementptr inbounds nuw i8, ptr %0, i64 40
  %37 = load float, ptr %36, align 8
  %38 = getelementptr inbounds nuw i8, ptr %0, i64 44
  %39 = load float, ptr %38, align 4
  tail call void @SDL_SendPenMotion(i64 noundef %.0.i, i32 noundef %21, ptr noundef %23, float noundef %37, float noundef %39) #12
  br label %.thread79

40:                                               ; preds = %Wayland_AdjustEventTimestampBase.exit
  %.not65 = icmp eq i32 %28, -1
  br i1 %.not65, label %.thread79, label %41

41:                                               ; preds = %40
  %42 = icmp ne i32 %28, 0
  tail call void @SDL_SendPenTouch(i64 noundef %.0.i, i32 noundef %21, ptr noundef %23, i1 noundef zeroext false, i1 noundef zeroext %42) #12
  %.pre76 = load i8, ptr %24, align 8, !range !6
  %43 = trunc nuw i8 %.pre76 to i1
  br i1 %43, label %.thread78, label %.thread79

.thread78:                                        ; preds = %29, %41
  %44 = getelementptr inbounds nuw i8, ptr %0, i64 40
  %45 = load float, ptr %44, align 8
  %46 = getelementptr inbounds nuw i8, ptr %0, i64 44
  %47 = load float, ptr %46, align 4
  tail call void @SDL_SendPenMotion(i64 noundef %.0.i, i32 noundef %21, ptr noundef %23, float noundef %45, float noundef %47) #12
  br label %.thread79

.thread79:                                        ; preds = %40, %41, %.thread78, %30, %35
  %48 = getelementptr inbounds nuw i8, ptr %0, i64 80
  %49 = getelementptr inbounds nuw i8, ptr %0, i64 52
  br label %51

.preheader:                                       ; preds = %59
  %50 = getelementptr inbounds nuw i8, ptr %0, i64 88
  br label %62

51:                                               ; preds = %.thread79, %59
  %indvars.iv = phi i64 [ 0, %.thread79 ], [ %indvars.iv.next, %59 ]
  %52 = load i32, ptr %48, align 8
  %53 = trunc nuw nsw i64 %indvars.iv to i32
  %54 = shl nuw nsw i32 1, %53
  %55 = and i32 %52, %54
  %.not68 = icmp eq i32 %55, 0
  br i1 %.not68, label %59, label %56

56:                                               ; preds = %51
  %57 = getelementptr inbounds nuw [7 x float], ptr %49, i64 0, i64 %indvars.iv
  %58 = load float, ptr %57, align 4
  tail call void @SDL_SendPenAxis(i64 noundef %.0.i, i32 noundef %21, ptr noundef %23, i32 noundef %53, float noundef %58) #12
  br label %59

59:                                               ; preds = %51, %56
  %indvars.iv.next = add nuw nsw i64 %indvars.iv, 1
  %exitcond.not = icmp eq i64 %indvars.iv.next, 7
  br i1 %exitcond.not, label %.preheader, label %51, !llvm.loop !28

60:                                               ; preds = %69
  %61 = getelementptr inbounds nuw i8, ptr %0, i64 84
  store i32 -1, ptr %61, align 4
  store i8 0, ptr %24, align 8
  store i32 0, ptr %48, align 8
  br label %70

62:                                               ; preds = %.preheader, %69
  %indvars.iv72 = phi i64 [ 0, %.preheader ], [ %indvars.iv.next73, %69 ]
  %63 = getelementptr inbounds nuw [3 x i32], ptr %50, i64 0, i64 %indvars.iv72
  %64 = load i32, ptr %63, align 4
  %.not67 = icmp eq i32 %64, -1
  br i1 %.not67, label %69, label %65

65:                                               ; preds = %62
  %66 = trunc i64 %indvars.iv72 to i8
  %67 = add nuw nsw i8 %66, 1
  %68 = icmp ne i32 %64, 0
  tail call void @SDL_SendPenButton(i64 noundef %.0.i, i32 noundef %21, ptr noundef %23, i8 noundef zeroext %67, i1 noundef zeroext %68) #12
  store i32 -1, ptr %63, align 4
  br label %69

69:                                               ; preds = %65, %62
  %indvars.iv.next73 = add nuw nsw i64 %indvars.iv72, 1
  %exitcond75.not = icmp eq i64 %indvars.iv.next73, 3
  br i1 %exitcond75.not, label %60, label %62, !llvm.loop !29

70:                                               ; preds = %3, %60
  ret void
}